; Function Attrs: mustprogress nofree norecurse nosync nounwind memory(read, argmem: readwrite, inaccessiblemem: none) uwtable
define internal fastcc noundef zeroext i1 @_ZN4absl18debugging_internalL11ParseNumberEPNS0_5StateEPi(ptr noundef captures(none) %0, ptr noundef writeonly captures(address_is_null) %1) unnamed_addr #8 personality ptr @__gxx_personality_v0 {
  %3 = getelementptr inbounds nuw i8, ptr %0, i64 20
  %4 = load i32, ptr %3, align 4, !tbaa !17
  %5 = add nsw i32 %4, 1
  %6 = getelementptr inbounds nuw i8, ptr %0, i64 24
  %7 = load i32, ptr %6, align 8, !tbaa !15
  %8 = add nsw i32 %7, 1
  store i32 %8, ptr %6, align 8, !tbaa !15
  %9 = icmp sgt i32 %4, 255
  %10 = icmp sgt i32 %7, 131071
  %or.cond = select i1 %9, i1 true, i1 %10
  br i1 %or.cond, label %_ZNK4absl18debugging_internal12_GLOBAL__N_115ComplexityGuard12IsTooComplexEv.exit.thread, label %11

11:                                               ; preds = %2
  %12 = add nsw i32 %4, 2
  store i32 %12, ptr %3, align 4, !tbaa !17
  %13 = add nsw i32 %7, 2
  store i32 %13, ptr %6, align 8, !tbaa !15
  %14 = icmp sgt i32 %4, 254
  %15 = icmp sgt i32 %7, 131070
  %or.cond.i = select i1 %14, i1 true, i1 %15
  %.val34.pre = load ptr, ptr %0, align 8, !tbaa !7
  %.phi.trans.insert = getelementptr i8, ptr %0, i64 28
  %.val35.pre = load i32, ptr %.phi.trans.insert, align 4, !tbaa !16
  br i1 %or.cond.i, label %._crit_edge44, label %16

16:                                               ; preds = %11
  %17 = sext i32 %.val35.pre to i64
  %18 = getelementptr inbounds i8, ptr %.val34.pre, i64 %17
  %19 = load i8, ptr %18, align 1, !tbaa !4
  %20 = icmp eq i8 %19, 110
  br i1 %20, label %21, label %._crit_edge44

21:                                               ; preds = %16
  %22 = add nsw i32 %.val35.pre, 1
  store i32 %22, ptr %.phi.trans.insert, align 4, !tbaa !16
  br label %._crit_edge44

._crit_edge44:                                    ; preds = %11, %21, %16
  %.val35 = phi i32 [ %22, %21 ], [ %.val35.pre, %16 ], [ %.val35.pre, %11 ]
  %.0.i36 = phi i1 [ true, %21 ], [ false, %16 ], [ false, %11 ]
  store i32 %5, ptr %3, align 4, !tbaa !17
  %23 = getelementptr i8, ptr %0, i64 28
  %24 = sext i32 %.val35 to i64
  %25 = getelementptr inbounds i8, ptr %.val34.pre, i64 %24
  %26 = load i8, ptr %25, align 1, !tbaa !4
  %27 = add i8 %26, -48
  %28 = icmp ult i8 %27, 10
  br i1 %28, label %.lr.ph, label %_ZNK4absl18debugging_internal12_GLOBAL__N_115ComplexityGuard12IsTooComplexEv.exit.thread

.lr.ph:                                           ; preds = %._crit_edge44, %.lr.ph
  %29 = phi i8 [ %35, %.lr.ph ], [ %26, %._crit_edge44 ]
  %.041 = phi i32 [ %33, %.lr.ph ], [ 0, %._crit_edge44 ]
  %.02140 = phi ptr [ %34, %.lr.ph ], [ %25, %._crit_edge44 ]
  %30 = mul i32 %.041, 10
  %31 = zext nneg i8 %29 to i32
  %32 = add i32 %30, -48
  %33 = add i32 %32, %31
  %34 = getelementptr inbounds nuw i8, ptr %.02140, i64 1
  %35 = load i8, ptr %34, align 1, !tbaa !4
  %36 = add i8 %35, -48
  %37 = icmp ult i8 %36, 10
  br i1 %37, label %.lr.ph, label %38, !llvm.loop !43

38:                                               ; preds = %.lr.ph
  %39 = ptrtoint ptr %34 to i64
  %40 = ptrtoint ptr %25 to i64
  %41 = sub i64 %39, %40
  %42 = trunc i64 %41 to i32
  %43 = add i32 %.val35, %42
  store i32 %43, ptr %23, align 4, !tbaa !16
  %.not27 = icmp eq ptr %1, null
  br i1 %.not27, label %_ZNK4absl18debugging_internal12_GLOBAL__N_115ComplexityGuard12IsTooComplexEv.exit.thread, label %44

44:                                               ; preds = %38
  %45 = sub i32 0, %33
  %spec.select = select i1 %.0.i36, i32 %45, i32 %33
  store i32 %spec.select, ptr %1, align 4, !tbaa !29
  %.pre = load i32, ptr %3, align 4, !tbaa !17
  %46 = add nsw i32 %.pre, -1
  br label %_ZNK4absl18debugging_internal12_GLOBAL__N_115ComplexityGuard12IsTooComplexEv.exit.thread

_ZNK4absl18debugging_internal12_GLOBAL__N_115ComplexityGuard12IsTooComplexEv.exit.thread: ; preds = %._crit_edge44, %2, %44, %38
  %47 = phi i32 [ %4, %38 ], [ %46, %44 ], [ %4, %2 ], [ %4, %._crit_edge44 ]
  %.022 = phi i1 [ true, %38 ], [ true, %44 ], [ false, %2 ], [ false, %._crit_edge44 ]
  store i32 %47, ptr %3, align 4, !tbaa !17
  ret i1 %.022
}